target datalayout = "e-m:e-p270:32:32-p271:32:32-p272:64:64-i64:64-i128:128-f80:128-n8:16:32:64-S128"
target triple = "x86_64-pc-linux-gnu"

%struct.lv_area_t = type { i32, i32, i32, i32 }

; Function Attrs: nounwind uwtable
define void @lv_obj_scrollbar_invalidate(ptr noundef %0) #0 {
  %2 = alloca ptr, align 8
  %3 = alloca %struct.lv_area_t, align 4
  %4 = alloca %struct.lv_area_t, align 4
  %5 = alloca i32, align 4
  store ptr %0, ptr %2, align 8, !tbaa !3
  call void @llvm.lifetime.start.p0(i64 16, ptr %3) #5
  call void @llvm.lifetime.start.p0(i64 16, ptr %4) #5
  %6 = load ptr, ptr %2, align 8, !tbaa !3
  call void @lv_obj_get_scrollbar_area(ptr noundef %6, ptr noundef %3, ptr noundef %4)
  %7 = call i32 @lv_area_get_size(ptr noundef %3)
  %8 = icmp ule i32 %7, 0
  br i1 %8, label %9, label %13

9:                                                ; preds = %1
  %10 = call i32 @lv_area_get_size(ptr noundef %4)
  %11 = icmp ule i32 %10, 0
  br i1 %11, label %12, label %13

12:                                               ; preds = %9
  store i32 1, ptr %5, align 4
  br label %24

13:                                               ; preds = %9, %1
  %14 = call i32 @lv_area_get_size(ptr noundef %3)
  %15 = icmp ugt i32 %14, 0
  br i1 %15, label %16, label %18

16:                                               ; preds = %13
  %17 = load ptr, ptr %2, align 8, !tbaa !3
  call void @lv_obj_invalidate_area(ptr noundef %17, ptr noundef %3)
  br label %18

18:                                               ; preds = %16, %13
  %19 = call i32 @lv_area_get_size(ptr noundef %4)
  %20 = icmp ugt i32 %19, 0
  br i1 %20, label %21, label %23

21:                                               ; preds = %18
  %22 = load ptr, ptr %2, align 8, !tbaa !3
  call void @lv_obj_invalidate_area(ptr noundef %22, ptr noundef %4)
  br label %23

23:                                               ; preds = %21, %18
  store i32 0, ptr %5, align 4
  br label %24

24:                                               ; preds = %23, %12
  call void @llvm.lifetime.end.p0(i64 16, ptr %4) #5
  call void @llvm.lifetime.end.p0(i64 16, ptr %3) #5
  %25 = load i32, ptr %5, align 4
  switch i32 %25, label %27 [
    i32 0, label %26
    i32 1, label %26
  ]

26:                                               ; preds = %24, %24
  ret void

27:                                               ; preds = %24
  unreachable
}