; Function Attrs: nounwind uwtable
define void @lv_obj_scrollbar_invalidate(ptr noundef %0) local_unnamed_addr #0 {
  %2 = alloca %struct.lv_area_t, align 4
  %3 = alloca %struct.lv_area_t, align 4
  call void @llvm.lifetime.start.p0(i64 16, ptr nonnull %2) #5
  call void @llvm.lifetime.start.p0(i64 16, ptr nonnull %3) #5
  call void @lv_obj_get_scrollbar_area(ptr noundef %0, ptr noundef nonnull %2, ptr noundef nonnull %3)
  %4 = call i32 @lv_area_get_size(ptr noundef nonnull %2) #5
  %5 = icmp eq i32 %4, 0
  br i1 %5, label %6, label %9

6:                                                ; preds = %1
  %7 = call i32 @lv_area_get_size(ptr noundef nonnull %3) #5
  %8 = icmp eq i32 %7, 0
  br i1 %8, label %15, label %9

9:                                                ; preds = %6, %1
  %10 = call i32 @lv_area_get_size(ptr noundef nonnull %2) #5
  %.not = icmp eq i32 %10, 0
  br i1 %.not, label %12, label %11

11:                                               ; preds = %9
  call void @lv_obj_invalidate_area(ptr noundef %0, ptr noundef nonnull %2) #5
  br label %12

12:                                               ; preds = %11, %9
  %13 = call i32 @lv_area_get_size(ptr noundef nonnull %3) #5
  %.not3 = icmp eq i32 %13, 0
  br i1 %.not3, label %15, label %14

14:                                               ; preds = %12
  call void @lv_obj_invalidate_area(ptr noundef %0, ptr noundef nonnull %3) #5
  br label %15

15:                                               ; preds = %12, %14, %6
  call void @llvm.lifetime.end.p0(i64 16, ptr nonnull %3) #5
  call void @llvm.lifetime.end.p0(i64 16, ptr nonnull %2) #5
  ret void
}